target datalayout = "e-m:e-p270:32:32-p271:32:32-p272:64:64-i64:64-i128:128-f80:128-n8:16:32:64-S128"
target triple = "x86_64-pc-linux-gnu"

%struct.Aig_Man_t_ = type { ptr, ptr, ptr, ptr, ptr, ptr, ptr, %struct.Aig_Obj_t_, i32, i32, i32, i32, i32, i32, [7 x i32], i32, ptr, i32, ptr, i32, ptr, i32, i32, i32, ptr, i32, i32, i32, i32, i32, ptr, ptr, i32, ptr, ptr, i32, ptr, ptr, i32, i32, i32, ptr, ptr, ptr, ptr, ptr, ptr, ptr, ptr, ptr, ptr, ptr, ptr, ptr, ptr, i32, ptr, ptr, ptr, ptr, i32, i64, i64, i64, ptr, ptr }
%struct.Aig_Obj_t_ = type { %union.anon, ptr, ptr, i64, i32, i32, %union.anon.0 }
%union.anon = type { ptr }
%union.anon.0 = type { ptr }
%struct.Vec_Ptr_t_ = type { i32, i32, ptr }

; Function Attrs: inlinehint nounwind uwtable
define internal void @Vec_PtrFree(ptr noundef %0) #4 {
  %2 = alloca ptr, align 8
  store ptr %0, ptr %2, align 8, !tbaa !33
  %3 = load ptr, ptr %2, align 8, !tbaa !33
  %4 = getelementptr inbounds nuw %struct.Vec_Ptr_t_, ptr %3, i32 0, i32 2
  %5 = load ptr, ptr %4, align 8, !tbaa !37
  %6 = icmp ne ptr %5, null
  br i1 %6, label %7, label %13

7:                                                ; preds = %1
  %8 = load ptr, ptr %2, align 8, !tbaa !33
  %9 = getelementptr inbounds nuw %struct.Vec_Ptr_t_, ptr %8, i32 0, i32 2
  %10 = load ptr, ptr %9, align 8, !tbaa !37
  call void @free(ptr noundef %10) #9
  %11 = load ptr, ptr %2, align 8, !tbaa !33
  %12 = getelementptr inbounds nuw %struct.Vec_Ptr_t_, ptr %11, i32 0, i32 2
  store ptr null, ptr %12, align 8, !tbaa !37
  br label %14

13:                                               ; preds = %1
  br label %14

14:                                               ; preds = %13, %7
  %15 = load ptr, ptr %2, align 8, !tbaa !33
  %16 = icmp ne ptr %15, null
  br i1 %16, label %17, label %19

17:                                               ; preds = %14
  %18 = load ptr, ptr %2, align 8, !tbaa !33
  call void @free(ptr noundef %18) #9
  store ptr null, ptr %2, align 8, !tbaa !33
  br label %20

19:                                               ; preds = %14
  br label %20

20:                                               ; preds = %19, %17
  ret void
}

; Function Attrs: inlinehint nounwind uwtable
define internal i32 @Aig_ManRegNum(ptr noundef %0) #4 {
  %2 = alloca ptr, align 8
  store ptr %0, ptr %2, align 8, !tbaa !3
  %3 = load ptr, ptr %2, align 8, !tbaa !3
  %4 = getelementptr inbounds nuw %struct.Aig_Man_t_, ptr %3, i32 0, i32 8
  %5 = load i32, ptr %4, align 8, !tbaa !22
  ret i32 %5
}

; Function Attrs: nounwind uwtable
define ptr @Aig_ManConstReduce(ptr noundef %0, i32 noundef %1, i32 noundef %2, i32 noundef %3, i32 noundef %4, i32 noundef %5) #0 {
  %7 = alloca ptr, align 8
  %8 = alloca i32, align 4
  %9 = alloca i32, align 4
  %10 = alloca i32, align 4
  %11 = alloca i32, align 4
  %12 = alloca i32, align 4
  %13 = alloca ptr, align 8
  %14 = alloca ptr, align 8
  store ptr %0, ptr %7, align 8, !tbaa !3
  store i32 %1, ptr %8, align 4, !tbaa !21
  store i32 %2, ptr %9, align 4, !tbaa !21
  store i32 %3, ptr %10, align 4, !tbaa !21
  store i32 %4, ptr %11, align 4, !tbaa !21
  store i32 %5, ptr %12, align 4, !tbaa !21
  call void @llvm.lifetime.start.p0(i64 8, ptr %13) #9
  call void @llvm.lifetime.start.p0(i64 8, ptr %14) #9
  br label %15

15:                                               ; preds = %50, %6
  %16 = load ptr, ptr %7, align 8, !tbaa !3
  %17 = call i32 @Aig_ManRegNum(ptr noundef %16)
  %18 = icmp sgt i32 %17, 0
  br i1 %18, label %19, label %52

19:                                               ; preds = %15
  %20 = load i32, ptr %8, align 4, !tbaa !21
  %21 = icmp ne i32 %20, 0
  br i1 %21, label %22, label %29

22:                                               ; preds = %19
  %23 = load ptr, ptr %7, align 8, !tbaa !3
  %24 = load i32, ptr %9, align 4, !tbaa !21
  %25 = load i32, ptr %10, align 4, !tbaa !21
  %26 = load i32, ptr %11, align 4, !tbaa !21
  %27 = load i32, ptr %12, align 4, !tbaa !21
  %28 = call ptr @Saig_MvManSimulate(ptr noundef %23, i32 noundef %24, i32 noundef %25, i32 noundef %26, i32 noundef %27)
  store ptr %28, ptr %14, align 8, !tbaa !33
  br label %34

29:                                               ; preds = %19
  %30 = load ptr, ptr %7, align 8, !tbaa !3
  %31 = load i32, ptr %11, align 4, !tbaa !21
  %32 = load i32, ptr %12, align 4, !tbaa !21
  %33 = call ptr @Aig_ManTernarySimulate(ptr noundef %30, i32 noundef %31, i32 noundef %32)
  store ptr %33, ptr %14, align 8, !tbaa !33
  br label %34

34:                                               ; preds = %29, %22
  %35 = load ptr, ptr %14, align 8, !tbaa !33
  %36 = icmp eq ptr %35, null
  br i1 %36, label %37, label %38

37:                                               ; preds = %34
  br label %52

38:                                               ; preds = %34
  %39 = load ptr, ptr %7, align 8, !tbaa !3
  store ptr %39, ptr %13, align 8, !tbaa !3
  %40 = load ptr, ptr %14, align 8, !tbaa !33
  %41 = call ptr @Aig_ManRemap(ptr noundef %39, ptr noundef %40)
  store ptr %41, ptr %7, align 8, !tbaa !3
  %42 = load ptr, ptr %14, align 8, !tbaa !33
  call void @Vec_PtrFree(ptr noundef %42)
  %43 = load ptr, ptr %7, align 8, !tbaa !3
  %44 = call i32 @Aig_ManSeqCleanup(ptr noundef %43)
  %45 = load i32, ptr %11, align 4, !tbaa !21
  %46 = icmp ne i32 %45, 0
  br i1 %46, label %47, label %50

47:                                               ; preds = %38
  %48 = load ptr, ptr %13, align 8, !tbaa !3
  %49 = load ptr, ptr %7, align 8, !tbaa !3
  call void @Aig_ManReportImprovement(ptr noundef %48, ptr noundef %49)
  br label %50

50:                                               ; preds = %47, %38
  %51 = load ptr, ptr %13, align 8, !tbaa !3
  call void @Aig_ManStop(ptr noundef %51)
  br label %15, !llvm.loop !65

52:                                               ; preds = %37, %15
  %53 = load ptr, ptr %7, align 8, !tbaa !3
  call void @llvm.lifetime.end.p0(i64 8, ptr %14) #9
  call void @llvm.lifetime.end.p0(i64 8, ptr %13) #9
  ret ptr %53
}